target datalayout = "e-m:e-p270:32:32-p271:32:32-p272:64:64-i64:64-i128:128-f80:128-n8:16:32:64-S128"
target triple = "x86_64-pc-linux-gnu"

%class.CrowdToolState = type <{ %struct.SampleToolState, ptr, ptr, ptr, [3 x float], i32, %struct.dtCrowdAgentDebugInfo, ptr, [128 x %"struct.CrowdToolState::AgentTrail"], %class.ValueHistory, %class.ValueHistory, %struct.CrowdToolParams, i8, [7 x i8] }>
%struct.SampleToolState = type { ptr }
%struct.dtCrowdAgentDebugInfo = type { i32, [3 x float], [3 x float], ptr }
%"struct.CrowdToolState::AgentTrail" = type { [192 x float], i32 }
%class.ValueHistory = type { [256 x float], i32 }
%struct.CrowdToolParams = type { i8, i8, i8, i8, i8, i8, i8, i8, i8, i8, i8, i8, i8, i8, i8, i8, i8, i8, float, i8, float }

@_ZTV15SampleToolState = external unnamed_addr constant { [9 x ptr] }, align 8

; Function Attrs: mustprogress nounwind uwtable
define linkonce_odr dso_local void @_ZN15SampleToolStateC2Ev(ptr noundef nonnull align 8 dereferenceable(8) %0) unnamed_addr #1 comdat align 2 {
  %2 = alloca ptr, align 8
  store ptr %0, ptr %2, align 8
  %3 = load ptr, ptr %2, align 8
  store ptr getelementptr inbounds ({ [9 x ptr] }, ptr @_ZTV15SampleToolState, i32 0, i32 0, i32 2), ptr %3, align 8
  ret void
}

; Function Attrs: mustprogress uwtable
define dso_local void @_ZN14CrowdToolStateC2Ev(ptr noundef nonnull align 8 dereferenceable(101001) %0) unnamed_addr #0 align 2 personality ptr @__gxx_personality_v0 {
  %2 = alloca ptr, align 8
  %3 = alloca ptr, align 8
  %4 = alloca i32, align 4
  store ptr %0, ptr %2, align 8
  %5 = load ptr, ptr %2, align 8
  call void @_ZN15SampleToolStateC2Ev(ptr noundef nonnull align 8 dereferenceable(8) %5) #10
  store ptr getelementptr inbounds ({ [9 x ptr] }, ptr @_ZTV14CrowdToolState, i32 0, i32 0, i32 2), ptr %5, align 8
  %6 = getelementptr inbounds %class.CrowdToolState, ptr %5, i32 0, i32 1
  store ptr null, ptr %6, align 8
  %7 = getelementptr inbounds %class.CrowdToolState, ptr %5, i32 0, i32 2
  store ptr null, ptr %7, align 8
  %8 = getelementptr inbounds %class.CrowdToolState, ptr %5, i32 0, i32 3
  store ptr null, ptr %8, align 8
  %9 = getelementptr inbounds %class.CrowdToolState, ptr %5, i32 0, i32 5
  store i32 0, ptr %9, align 4
  %10 = getelementptr inbounds %class.CrowdToolState, ptr %5, i32 0, i32 9
  invoke void @_ZN12ValueHistoryC1Ev(ptr noundef nonnull align 4 dereferenceable(1028) %10)
          to label %11 unwind label %73

11:                                               ; preds = %1
  %12 = getelementptr inbounds %class.CrowdToolState, ptr %5, i32 0, i32 10
  invoke void @_ZN12ValueHistoryC1Ev(ptr noundef nonnull align 4 dereferenceable(1028) %12)
          to label %13 unwind label %73

13:                                               ; preds = %11
  %14 = getelementptr inbounds %class.CrowdToolState, ptr %5, i32 0, i32 12
  store i8 1, ptr %14, align 8
  %15 = getelementptr inbounds %class.CrowdToolState, ptr %5, i32 0, i32 11
  %16 = getelementptr inbounds %struct.CrowdToolParams, ptr %15, i32 0, i32 0
  store i8 1, ptr %16, align 8
  %17 = getelementptr inbounds %class.CrowdToolState, ptr %5, i32 0, i32 11
  %18 = getelementptr inbounds %struct.CrowdToolParams, ptr %17, i32 0, i32 1
  store i8 0, ptr %18, align 1
  %19 = getelementptr inbounds %class.CrowdToolState, ptr %5, i32 0, i32 11
  %20 = getelementptr inbounds %struct.CrowdToolParams, ptr %19, i32 0, i32 2
  store i8 0, ptr %20, align 2
  %21 = getelementptr inbounds %class.CrowdToolState, ptr %5, i32 0, i32 11
  %22 = getelementptr inbounds %struct.CrowdToolParams, ptr %21, i32 0, i32 3
  store i8 0, ptr %22, align 1
  %23 = getelementptr inbounds %class.CrowdToolState, ptr %5, i32 0, i32 11
  %24 = getelementptr inbounds %struct.CrowdToolParams, ptr %23, i32 0, i32 4
  store i8 0, ptr %24, align 4
  %25 = getelementptr inbounds %class.CrowdToolState, ptr %5, i32 0, i32 11
  %26 = getelementptr inbounds %struct.CrowdToolParams, ptr %25, i32 0, i32 5
  store i8 0, ptr %26, align 1
  %27 = getelementptr inbounds %class.CrowdToolState, ptr %5, i32 0, i32 11
  %28 = getelementptr inbounds %struct.CrowdToolParams, ptr %27, i32 0, i32 6
  store i8 0, ptr %28, align 2
  %29 = getelementptr inbounds %class.CrowdToolState, ptr %5, i32 0, i32 11
  %30 = getelementptr inbounds %struct.CrowdToolParams, ptr %29, i32 0, i32 7
  store i8 0, ptr %30, align 1
  %31 = getelementptr inbounds %class.CrowdToolState, ptr %5, i32 0, i32 11
  %32 = getelementptr inbounds %struct.CrowdToolParams, ptr %31, i32 0, i32 8
  store i8 0, ptr %32, align 8
  %33 = getelementptr inbounds %class.CrowdToolState, ptr %5, i32 0, i32 11
  %34 = getelementptr inbounds %struct.CrowdToolParams, ptr %33, i32 0, i32 9
  store i8 0, ptr %34, align 1
  %35 = getelementptr inbounds %class.CrowdToolState, ptr %5, i32 0, i32 11
  %36 = getelementptr inbounds %struct.CrowdToolParams, ptr %35, i32 0, i32 10
  store i8 0, ptr %36, align 2
  %37 = getelementptr inbounds %class.CrowdToolState, ptr %5, i32 0, i32 11
  %38 = getelementptr inbounds %struct.CrowdToolParams, ptr %37, i32 0, i32 11
  store i8 0, ptr %38, align 1
  %39 = getelementptr inbounds %class.CrowdToolState, ptr %5, i32 0, i32 11
  %40 = getelementptr inbounds %struct.CrowdToolParams, ptr %39, i32 0, i32 12
  store i8 0, ptr %40, align 4
  %41 = getelementptr inbounds %class.CrowdToolState, ptr %5, i32 0, i32 11
  %42 = getelementptr inbounds %struct.CrowdToolParams, ptr %41, i32 0, i32 13
  store i8 1, ptr %42, align 1
  %43 = getelementptr inbounds %class.CrowdToolState, ptr %5, i32 0, i32 11
  %44 = getelementptr inbounds %struct.CrowdToolParams, ptr %43, i32 0, i32 14
  store i8 1, ptr %44, align 2
  %45 = getelementptr inbounds %class.CrowdToolState, ptr %5, i32 0, i32 11
  %46 = getelementptr inbounds %struct.CrowdToolParams, ptr %45, i32 0, i32 15
  store i8 1, ptr %46, align 1
  %47 = getelementptr inbounds %class.CrowdToolState, ptr %5, i32 0, i32 11
  %48 = getelementptr inbounds %struct.CrowdToolParams, ptr %47, i32 0, i32 16
  store i8 1, ptr %48, align 8
  %49 = getelementptr inbounds %class.CrowdToolState, ptr %5, i32 0, i32 11
  %50 = getelementptr inbounds %struct.CrowdToolParams, ptr %49, i32 0, i32 17
  store i8 1, ptr %50, align 1
  %51 = getelementptr inbounds %class.CrowdToolState, ptr %5, i32 0, i32 11
  %52 = getelementptr inbounds %struct.CrowdToolParams, ptr %51, i32 0, i32 18
  store float 3.000000e+00, ptr %52, align 4
  %53 = getelementptr inbounds %class.CrowdToolState, ptr %5, i32 0, i32 11
  %54 = getelementptr inbounds %struct.CrowdToolParams, ptr %53, i32 0, i32 19
  store i8 0, ptr %54, align 8
  %55 = getelementptr inbounds %class.CrowdToolState, ptr %5, i32 0, i32 11
  %56 = getelementptr inbounds %struct.CrowdToolParams, ptr %55, i32 0, i32 20
  store float 2.000000e+00, ptr %56, align 4
  %57 = getelementptr inbounds %class.CrowdToolState, ptr %5, i32 0, i32 8
  %58 = getelementptr inbounds [128 x %"struct.CrowdToolState::AgentTrail"], ptr %57, i64 0, i64 0
  call void @llvm.memset.p0.i64(ptr align 8 %58, i8 0, i64 98816, i1 false)
  %59 = invoke noundef ptr @_Z33dtAllocObstacleAvoidanceDebugDatav()
          to label %60 unwind label %73

60:                                               ; preds = %13
  %61 = getelementptr inbounds %class.CrowdToolState, ptr %5, i32 0, i32 7
  store ptr %59, ptr %61, align 8
  %62 = getelementptr inbounds %class.CrowdToolState, ptr %5, i32 0, i32 7
  %63 = load ptr, ptr %62, align 8
  %64 = invoke noundef zeroext i1 @_ZN28dtObstacleAvoidanceDebugData4initEi(ptr noundef nonnull align 8 dereferenceable(64) %63, i32 noundef 2048)
          to label %65 unwind label %73

65:                                               ; preds = %60
  %66 = getelementptr inbounds %class.CrowdToolState, ptr %5, i32 0, i32 6
  call void @llvm.memset.p0.i64(ptr align 8 %66, i8 0, i64 40, i1 false)
  %67 = getelementptr inbounds %class.CrowdToolState, ptr %5, i32 0, i32 6
  %68 = getelementptr inbounds %struct.dtCrowdAgentDebugInfo, ptr %67, i32 0, i32 0
  store i32 -1, ptr %68, align 8
  %69 = getelementptr inbounds %class.CrowdToolState, ptr %5, i32 0, i32 7
  %70 = load ptr, ptr %69, align 8
  %71 = getelementptr inbounds %class.CrowdToolState, ptr %5, i32 0, i32 6
  %72 = getelementptr inbounds %struct.dtCrowdAgentDebugInfo, ptr %71, i32 0, i32 3
  store ptr %70, ptr %72, align 8
  ret void

73:                                               ; preds = %60, %13, %11, %1
  %74 = landingpad { ptr, i32 }
          cleanup
  %75 = extractvalue { ptr, i32 } %74, 0
  store ptr %75, ptr %3, align 8
  %76 = extractvalue { ptr, i32 } %74, 1
  store i32 %76, ptr %4, align 4
  call void @_ZN15SampleToolStateD2Ev(ptr noundef nonnull align 8 dereferenceable(8) %5) #10
  br label %77

77:                                               ; preds = %73
  %78 = load ptr, ptr %3, align 8
  %79 = load i32, ptr %4, align 4
  %80 = insertvalue { ptr, i32 } poison, ptr %78, 0
  %81 = insertvalue { ptr, i32 } %80, i32 %79, 1
  resume { ptr, i32 } %81
}