; Function Attrs: mustprogress uwtable
define dso_local void @_ZN14CrowdToolStateC2Ev(ptr noundef nonnull align 8 dereferenceable(101001) %0) unnamed_addr #0 align 2 personality ptr @__gxx_personality_v0 {
  store ptr getelementptr inbounds ({ [9 x ptr] }, ptr @_ZTV14CrowdToolState, i64 0, i32 0, i64 2), ptr %0, align 8
  %2 = getelementptr inbounds i8, ptr %0, i64 8
  %3 = getelementptr inbounds i8, ptr %0, i64 44
  store i32 0, ptr %3, align 4
  %4 = getelementptr inbounds i8, ptr %0, i64 98912
  tail call void @llvm.memset.p0.i64(ptr noundef nonnull align 8 dereferenceable(24) %2, i8 0, i64 24, i1 false)
  invoke void @_ZN12ValueHistoryC1Ev(ptr noundef nonnull align 4 dereferenceable(1028) %4)
          to label %5 unwind label %24

5:                                                ; preds = %1
  %6 = getelementptr inbounds i8, ptr %0, i64 99940
  invoke void @_ZN12ValueHistoryC1Ev(ptr noundef nonnull align 4 dereferenceable(1028) %6)
          to label %7 unwind label %24

7:                                                ; preds = %5
  %8 = getelementptr inbounds i8, ptr %0, i64 101000
  store i8 1, ptr %8, align 8
  %9 = getelementptr inbounds i8, ptr %0, i64 100968
  store i8 1, ptr %9, align 8
  %10 = getelementptr inbounds i8, ptr %0, i64 100969
  %11 = getelementptr inbounds i8, ptr %0, i64 100981
  tail call void @llvm.memset.p0.i64(ptr noundef nonnull align 1 dereferenceable(12) %10, i8 0, i64 12, i1 false)
  %12 = getelementptr inbounds i8, ptr %0, i64 100988
  tail call void @llvm.memset.p0.i64(ptr noundef nonnull align 1 dereferenceable(5) %11, i8 1, i64 5, i1 false)
  store float 3.000000e+00, ptr %12, align 4
  %13 = getelementptr inbounds i8, ptr %0, i64 100992
  store i8 0, ptr %13, align 8
  %14 = getelementptr inbounds i8, ptr %0, i64 100996
  store float 2.000000e+00, ptr %14, align 4
  %15 = getelementptr inbounds i8, ptr %0, i64 96
  tail call void @llvm.memset.p0.i64(ptr noundef nonnull align 8 dereferenceable(98816) %15, i8 0, i64 98816, i1 false)
  %16 = invoke noundef ptr @_Z33dtAllocObstacleAvoidanceDebugDatav()
          to label %17 unwind label %24

17:                                               ; preds = %7
  %18 = getelementptr inbounds i8, ptr %0, i64 88
  store ptr %16, ptr %18, align 8
  %19 = invoke noundef zeroext i1 @_ZN28dtObstacleAvoidanceDebugData4initEi(ptr noundef nonnull align 8 dereferenceable(64) %16, i32 noundef 2048)
          to label %20 unwind label %24

20:                                               ; preds = %17
  %21 = getelementptr inbounds i8, ptr %0, i64 48
  tail call void @llvm.memset.p0.i64(ptr noundef nonnull align 8 dereferenceable(40) %21, i8 0, i64 32, i1 false)
  store i32 -1, ptr %21, align 8
  %22 = load ptr, ptr %18, align 8
  %23 = getelementptr inbounds i8, ptr %0, i64 80
  store ptr %22, ptr %23, align 8
  ret void

24:                                               ; preds = %17, %7, %5, %1
  %25 = landingpad { ptr, i32 }
          cleanup
  tail call void @_ZN15SampleToolStateD2Ev(ptr noundef nonnull align 8 dereferenceable(8) %0) #16
  resume { ptr, i32 } %25
}